	.file	"rs232.c"
	.text
.Ltext0:
	.cfi_sections	.debug_frame
	.section .rdata,"dr"
.LC0:
	.ascii "illegal comport number\0"
.LC1:
	.ascii "invalid baudrate\0"
.LC2:
	.ascii "unable to open comport\0"
	.align 8
.LC3:
	.ascii "unable to set comport dcb settings\0"
	.align 8
.LC4:
	.ascii "unable to set comport cfg settings\0"
	.align 8
.LC5:
	.ascii "unable to set comport time-out settings\0"
	.text
	.globl	RS232_OpenComport
	.def	RS232_OpenComport;	.scl	2;	.type	32;	.endef
	.seh_proc	RS232_OpenComport
RS232_OpenComport:
.LVL0:
.LFB5687:
	.file 1 "rs232.c"
	.loc 1 352 1 view -0
	.cfi_startproc
1:	call	__fentry__
	.loc 1 352 1 is_stmt 0 view .LVU1
	pushq	%rsi
	.seh_pushreg	%rsi
	.cfi_def_cfa_offset 16
	.cfi_offset 4, -16
	pushq	%rbx
	.seh_pushreg	%rbx
	.cfi_def_cfa_offset 24
	.cfi_offset 3, -24
	subq	$136, %rsp
	.seh_stackalloc	136
	.cfi_def_cfa_offset 160
	.seh_endprologue
	movl	%ecx, %ebx
	.loc 1 353 3 is_stmt 1 view .LVU2
	.loc 1 353 5 is_stmt 0 view .LVU3
	cmpl	$15, %ecx
	ja	.L37
	.loc 1 359 3 is_stmt 1 view .LVU4
	cmpl	$115200, %edx
	je	.L4
	cmpl	$115200, %edx
	jg	.L5
	cmpl	$4800, %edx
	je	.L6
	cmpl	$4800, %edx
	jle	.L38
	cmpl	$38400, %edx
	je	.L15
	cmpl	$38400, %edx
	jle	.L39
	cmpl	$57600, %edx
	jne	.L12
	.loc 1 379 18 view .LVU5
	movabsq	$3906649739561886050, %rax
	movabsq	$4422944270695018544, %rdx
.LVL1:
	.loc 1 379 18 is_stmt 0 view .LVU6
	movq	%rax, baudr(%rip)
	movq	%rdx, 8+baudr(%rip)
	movabsq	$8751735915869642808, %rax
	movabsq	$4427160979643584061, %rdx
	movq	%rax, 16+baudr(%rip)
	movq	%rdx, 24+baudr(%rip)
	movabsq	$7957646628375240753, %rax
	movabsq	$31084557158871584, %rdx
	movq	%rax, 32+baudr(%rip)
	movq	%rdx, 40+baudr(%rip)
	.loc 1 380 20 is_stmt 1 view .LVU7
	jmp	.L32
.LVL2:
.L37:
	.loc 1 355 5 view .LVU8
	leaq	.LC0(%rip), %rcx
.LVL3:
	.loc 1 355 5 is_stmt 0 view .LVU9
	call	puts
.LVL4:
	.loc 1 356 5 is_stmt 1 view .LVU10
	.loc 1 356 11 is_stmt 0 view .LVU11
	movl	$1, %eax
	jmp	.L1
.LVL5:
.L38:
	.loc 1 359 3 view .LVU12
	cmpl	$600, %edx
	je	.L8
	cmpl	$600, %edx
	jle	.L40
	cmpl	$1200, %edx
	je	.L13
	cmpl	$2400, %edx
	jne	.L12
	.loc 1 369 17 is_stmt 1 view .LVU13
	movabsq	$3473456451869303138, %rax
	movabsq	$4052502392181366832, %rdx
.LVL6:
	.loc 1 369 17 is_stmt 0 view .LVU14
	movq	%rax, baudr(%rip)
	movq	%rdx, 8+baudr(%rip)
	movabsq	$4429699704734969888, %rax
	movabsq	$3548115705435201614, %rdx
	movq	%rax, 16+baudr(%rip)
	movq	%rdx, 24+baudr(%rip)
	movabsq	$2336927566355784736, %rax
	movq	%rax, 32+baudr(%rip)
	movl	$1030976626, 40+baudr(%rip)
	movw	$28271, 44+baudr(%rip)
	movb	$0, 46+baudr(%rip)
	.loc 1 370 20 is_stmt 1 view .LVU15
	jmp	.L32
.LVL7:
.L40:
	.loc 1 359 3 is_stmt 0 view .LVU16
	cmpl	$110, %edx
	je	.L10
	cmpl	$300, %edx
	jne	.L12
	.loc 1 363 16 is_stmt 1 view .LVU17
	movabsq	$3472331651474088290, %rax
	movabsq	$2321673096683152416, %rdx
.LVL8:
	.loc 1 363 16 is_stmt 0 view .LVU18
	movq	%rax, baudr(%rip)
	movq	%rdx, 8+baudr(%rip)
	movabsq	$5637795849429999984, %rax
	movabsq	$2319702836188050208, %rdx
	movq	%rax, 16+baudr(%rip)
	movq	%rdx, 24+baudr(%rip)
	movabsq	$8223694343629861988, %rax
	movq	%rax, 32+baudr(%rip)
	movl	$1866298228, 40+baudr(%rip)
	movw	$110, 44+baudr(%rip)
	.loc 1 364 20 is_stmt 1 view .LVU19
	jmp	.L32
.LVL9:
.L39:
	.loc 1 359 3 is_stmt 0 view .LVU20
	cmpl	$9600, %edx
	je	.L17
	cmpl	$19200, %edx
	jne	.L12
	.loc 1 375 18 is_stmt 1 view .LVU21
	movabsq	$3618977915317084514, %rax
	movabsq	$4422944270695018544, %rdx
.LVL10:
	.loc 1 375 18 is_stmt 0 view .LVU22
	movq	%rax, baudr(%rip)
	movq	%rdx, 8+baudr(%rip)
	movabsq	$8751735915869642808, %rax
	movabsq	$4427160979643584061, %rdx
	movq	%rax, 16+baudr(%rip)
	movq	%rdx, 24+baudr(%rip)
	movabsq	$7957646628375240753, %rax
	movabsq	$31084557158871584, %rdx
	movq	%rax, 32+baudr(%rip)
	movq	%rdx, 40+baudr(%rip)
	.loc 1 376 20 is_stmt 1 view .LVU23
	jmp	.L32
.LVL11:
.L5:
	.loc 1 359 3 is_stmt 0 view .LVU24
	cmpl	$350000, %edx
	je	.L20
	cmpl	$350000, %edx
	jle	.L41
	cmpl	$500000, %edx
	je	.L27
	cmpl	$500000, %edx
	jle	.L42
	cmpl	$1000000, %edx
	jne	.L12
	.loc 1 399 20 is_stmt 1 view .LVU25
	movabsq	$3472329452450832738, %rax
	movabsq	$8386094070550769712, %rdx
.LVL12:
	.loc 1 399 20 is_stmt 0 view .LVU26
	movq	%rax, baudr(%rip)
	movq	%rdx, 8+baudr(%rip)
	movabsq	$7598242655532236129, %rax
	movabsq	$8031170618097236340, %rdx
	movq	%rax, 16+baudr(%rip)
	movq	%rdx, 24+baudr(%rip)
	movabsq	$4427729357044268400, %rax
	movabsq	$8015689855757479535, %rdx
	movq	%rax, 32+baudr(%rip)
	movq	%rdx, 40+baudr(%rip)
	movw	$110, 48+baudr(%rip)
	.loc 1 400 20 is_stmt 1 view .LVU27
	jmp	.L32
.LVL13:
.L41:
	.loc 1 359 3 is_stmt 0 view .LVU28
	cmpl	$256000, %edx
	je	.L22
	cmpl	$256000, %edx
	jle	.L43
	cmpl	$300000, %edx
	jne	.L12
	.loc 1 389 17 is_stmt 1 view .LVU29
	movabsq	$3472331651474088290, %rax
	movabsq	$7022344801642098736, %rdx
.LVL14:
	.loc 1 389 17 is_stmt 0 view .LVU30
	movq	%rax, baudr(%rip)
	movq	%rdx, 8+baudr(%rip)
	movabsq	$8388361543772813373, %rax
	movabsq	$8101822292474871161, %rdx
	movq	%rax, 16+baudr(%rip)
	movq	%rdx, 24+baudr(%rip)
	movabsq	$8015688756010955069, %rax
	movabsq	$7957646632671125614, %rdx
	movq	%rax, 32+baudr(%rip)
	movq	%rdx, 40+baudr(%rip)
	movb	$0, 48+baudr(%rip)
	.loc 1 390 20 is_stmt 1 view .LVU31
	jmp	.L32
.LVL15:
.L43:
	.loc 1 359 3 is_stmt 0 view .LVU32
	cmpl	$128000, %edx
	je	.L24
	cmpl	$230400, %edx
	jne	.L12
	.loc 1 385 17 is_stmt 1 view .LVU33
	movabsq	$3473174976892592482, %rax
	movabsq	$7022344801642098740, %rdx
.LVL16:
	.loc 1 385 17 is_stmt 0 view .LVU34
	movq	%rax, baudr(%rip)
	movq	%rdx, 8+baudr(%rip)
	movabsq	$8388361543772813373, %rax
	movabsq	$8101822292474871161, %rdx
	movq	%rax, 16+baudr(%rip)
	movq	%rdx, 24+baudr(%rip)
	movabsq	$8015688756010955069, %rax
	movabsq	$7957646632671125614, %rdx
	movq	%rax, 32+baudr(%rip)
	movq	%rdx, 40+baudr(%rip)
	movb	$0, 48+baudr(%rip)
	.loc 1 386 20 is_stmt 1 view .LVU35
	jmp	.L32
.LVL17:
.L42:
	.loc 1 359 3 is_stmt 0 view .LVU36
	cmpl	$400000, %edx
	je	.L29
	cmpl	$460800, %edx
	jne	.L12
	.loc 1 395 17 is_stmt 1 view .LVU37
	movabsq	$3474021600845980002, %rax
	movabsq	$7022344801642098744, %rdx
.LVL18:
	.loc 1 395 17 is_stmt 0 view .LVU38
	movq	%rax, baudr(%rip)
	movq	%rdx, 8+baudr(%rip)
	movabsq	$8388361543772813373, %rax
	movabsq	$8101822292474871161, %rdx
	movq	%rax, 16+baudr(%rip)
	movq	%rdx, 24+baudr(%rip)
	movabsq	$8015688756010955069, %rax
	movabsq	$7957646632671125614, %rdx
	movq	%rax, 32+baudr(%rip)
	movq	%rdx, 40+baudr(%rip)
	movb	$0, 48+baudr(%rip)
	.loc 1 396 20 is_stmt 1 view .LVU39
	jmp	.L32
.LVL19:
.L10:
	.loc 1 361 16 view .LVU40
	movabsq	$3472610927427543394, %rax
	movabsq	$2321673096683152416, %rdx
.LVL20:
	.loc 1 361 16 is_stmt 0 view .LVU41
	movq	%rax, baudr(%rip)
	movq	%rdx, 8+baudr(%rip)
	movabsq	$5637795849429999984, %rax
	movabsq	$2319702836188050208, %rdx
	movq	%rax, 16+baudr(%rip)
	movq	%rdx, 24+baudr(%rip)
	movabsq	$8223694343629861988, %rax
	movq	%rax, 32+baudr(%rip)
	movl	$1866298228, 40+baudr(%rip)
	movw	$110, 44+baudr(%rip)
	.loc 1 362 20 is_stmt 1 view .LVU42
.L32:
	.loc 1 403 20 view .LVU43
	.loc 1 406 3 view .LVU44
	.loc 1 406 47 is_stmt 0 view .LVU45
	movslq	%ebx, %rsi
	leaq	(%rsi,%rsi,4), %rdx
	leaq	comports(%rip), %rax
	leaq	(%rax,%rdx,2), %rcx
.LVL21:
	.loc 1 406 27 view .LVU46
	movq	$0, 48(%rsp)
	movl	$0, 40(%rsp)
	movl	$3, 32(%rsp)
	movl	$0, %r9d
	movl	$0, %r8d
	movl	$-1073741824, %edx
	call	*__imp_CreateFileA(%rip)
.LVL22:
	.loc 1 406 25 view .LVU47
	leaq	Cport(%rip), %rdx
	movq	%rax, (%rdx,%rsi,8)
	.loc 1 414 3 is_stmt 1 view .LVU48
	.loc 1 414 5 is_stmt 0 view .LVU49
	cmpq	$-1, %rax
	je	.L44
	.loc 1 420 3 is_stmt 1 view .LVU50
	.loc 1 421 3 view .LVU51
	leaq	96(%rsp), %rdx
	movq	$0, 96(%rsp)
	movq	$0, 104(%rsp)
	movq	$0, 112(%rsp)
	movl	$0, 120(%rsp)
	.loc 1 422 3 view .LVU52
	.loc 1 422 27 is_stmt 0 view .LVU53
	movl	$28, 96(%rsp)
	.loc 1 424 3 is_stmt 1 view .LVU54
	.loc 1 424 7 is_stmt 0 view .LVU55
	leaq	baudr(%rip), %rcx
	call	*__imp_BuildCommDCBA(%rip)
.LVL23:
	.loc 1 424 5 view .LVU56
	testl	%eax, %eax
	je	.L45
	.loc 1 431 3 is_stmt 1 view .LVU57
	.loc 1 431 7 is_stmt 0 view .LVU58
	leaq	96(%rsp), %rdx
	movslq	%ebx, %rcx
	leaq	Cport(%rip), %rax
	movq	(%rax,%rcx,8), %rcx
	call	*__imp_SetCommState(%rip)
.LVL24:
	.loc 1 431 5 view .LVU59
	testl	%eax, %eax
	je	.L46
	.loc 1 438 3 is_stmt 1 view .LVU60
	.loc 1 440 3 view .LVU61
	.loc 1 440 34 is_stmt 0 view .LVU62
	movl	$-1, 64(%rsp)
	.loc 1 441 3 is_stmt 1 view .LVU63
	.loc 1 441 41 is_stmt 0 view .LVU64
	movl	$0, 68(%rsp)
	.loc 1 442 3 is_stmt 1 view .LVU65
	.loc 1 442 39 is_stmt 0 view .LVU66
	movl	$0, 72(%rsp)
	.loc 1 443 3 is_stmt 1 view .LVU67
	.loc 1 443 42 is_stmt 0 view .LVU68
	movl	$0, 76(%rsp)
	.loc 1 444 3 is_stmt 1 view .LVU69
	.loc 1 444 40 is_stmt 0 view .LVU70
	movl	$0, 80(%rsp)
	.loc 1 446 3 is_stmt 1 view .LVU71
	.loc 1 446 7 is_stmt 0 view .LVU72
	leaq	64(%rsp), %rdx
	movslq	%ebx, %rcx
	leaq	Cport(%rip), %rax
	movq	(%rax,%rcx,8), %rcx
	call	*__imp_SetCommTimeouts(%rip)
.LVL25:
	movl	%eax, %edx
	.loc 1 453 9 view .LVU73
	movl	$0, %eax
	.loc 1 446 5 view .LVU74
	testl	%edx, %edx
	je	.L47
.LVL26:
.L1:
	.loc 1 454 1 view .LVU75
	addq	$136, %rsp
	.cfi_remember_state
	.cfi_def_cfa_offset 24
	popq	%rbx
	.cfi_restore 3
	.cfi_def_cfa_offset 16
	popq	%rsi
	.cfi_restore 4
	.cfi_def_cfa_offset 8
	ret
.LVL27:
.L8:
	.cfi_restore_state
	.loc 1 365 16 is_stmt 1 view .LVU76
	movabsq	$3472334950008971618, %rax
	movabsq	$2321673096683152416, %rdx
.LVL28:
	.loc 1 365 16 is_stmt 0 view .LVU77
	movq	%rax, baudr(%rip)
	movq	%rdx, 8+baudr(%rip)
	movabsq	$5637795849429999984, %rax
	movabsq	$2319702836188050208, %rdx
	movq	%rax, 16+baudr(%rip)
	movq	%rdx, 24+baudr(%rip)
	movabsq	$8223694343629861988, %rax
	movq	%rax, 32+baudr(%rip)
	movl	$1866298228, 40+baudr(%rip)
	movw	$110, 44+baudr(%rip)
	.loc 1 366 20 is_stmt 1 view .LVU78
	jmp	.L32
.LVL29:
.L13:
	.loc 1 367 17 view .LVU79
	movabsq	$3472892402404254050, %rax
	movabsq	$4052502392181366832, %rdx
.LVL30:
	.loc 1 367 17 is_stmt 0 view .LVU80
	movq	%rax, baudr(%rip)
	movq	%rdx, 8+baudr(%rip)
	movabsq	$4429699704734969888, %rax
	movabsq	$3548115705435201614, %rdx
	movq	%rax, 16+baudr(%rip)
	movq	%rdx, 24+baudr(%rip)
	movabsq	$2336927566355784736, %rax
	movq	%rax, 32+baudr(%rip)
	movl	$1030976626, 40+baudr(%rip)
	movw	$28271, 44+baudr(%rip)
	movb	$0, 46+baudr(%rip)
	.loc 1 368 20 is_stmt 1 view .LVU81
	jmp	.L32
.LVL31:
.L6:
	.loc 1 371 17 view .LVU82
	movabsq	$3474584550799401314, %rax
	movabsq	$4052502392181366832, %rdx
.LVL32:
	.loc 1 371 17 is_stmt 0 view .LVU83
	movq	%rax, baudr(%rip)
	movq	%rdx, 8+baudr(%rip)
	movabsq	$4429699704734969888, %rax
	movabsq	$3548115705435201614, %rdx
	movq	%rax, 16+baudr(%rip)
	movq	%rdx, 24+baudr(%rip)
	movabsq	$2336927566355784736, %rax
	movq	%rax, 32+baudr(%rip)
	movl	$1030976626, 40+baudr(%rip)
	movw	$28271, 44+baudr(%rip)
	movb	$0, 46+baudr(%rip)
	.loc 1 372 20 is_stmt 1 view .LVU84
	jmp	.L32
.LVL33:
.L17:
	.loc 1 373 17 view .LVU85
	movabsq	$3474027098404118882, %rax
	movabsq	$4052502392181366832, %rdx
.LVL34:
	.loc 1 373 17 is_stmt 0 view .LVU86
	movq	%rax, baudr(%rip)
	movq	%rdx, 8+baudr(%rip)
	movabsq	$4429699704734969888, %rax
	movabsq	$3548115705435201614, %rdx
	movq	%rax, 16+baudr(%rip)
	movq	%rdx, 24+baudr(%rip)
	movabsq	$2336927566355784736, %rax
	movq	%rax, 32+baudr(%rip)
	movl	$1030976626, 40+baudr(%rip)
	movw	$28271, 44+baudr(%rip)
	movb	$0, 46+baudr(%rip)
	.loc 1 374 20 is_stmt 1 view .LVU87
	jmp	.L32
.LVL35:
.L15:
	.loc 1 377 18 view .LVU88
	movabsq	$3762813827439485282, %rax
	movabsq	$4422944270695018544, %rdx
.LVL36:
	.loc 1 377 18 is_stmt 0 view .LVU89
	movq	%rax, baudr(%rip)
	movq	%rdx, 8+baudr(%rip)
	movabsq	$8751735915869642808, %rax
	movabsq	$4427160979643584061, %rdx
	movq	%rax, 16+baudr(%rip)
	movq	%rdx, 24+baudr(%rip)
	movabsq	$7957646628375240753, %rax
	movabsq	$31084557158871584, %rdx
	movq	%rax, 32+baudr(%rip)
	movq	%rdx, 40+baudr(%rip)
	.loc 1 378 20 is_stmt 1 view .LVU90
	jmp	.L32
.LVL37:
.L4:
	.loc 1 381 19 view .LVU91
	movabsq	$3832898897617183074, %rax
	movabsq	$7022344801642098738, %rdx
.LVL38:
	.loc 1 381 19 is_stmt 0 view .LVU92
	movq	%rax, baudr(%rip)
	movq	%rdx, 8+baudr(%rip)
	movabsq	$8388361543772813373, %rax
	movabsq	$8101822292474871161, %rdx
	movq	%rax, 16+baudr(%rip)
	movq	%rdx, 24+baudr(%rip)
	movabsq	$8015688756010955069, %rax
	movabsq	$7957646632671125614, %rdx
	movq	%rax, 32+baudr(%rip)
	movq	%rdx, 40+baudr(%rip)
	movb	$0, 48+baudr(%rip)
	.loc 1 382 20 is_stmt 1 view .LVU93
	jmp	.L32
.LVL39:
.L24:
	.loc 1 383 19 view .LVU94
	movabsq	$4049353154707677538, %rax
	movabsq	$7022344801642098736, %rdx
.LVL40:
	.loc 1 383 19 is_stmt 0 view .LVU95
	movq	%rax, baudr(%rip)
	movq	%rdx, 8+baudr(%rip)
	movabsq	$8388361543772813373, %rax
	movabsq	$8101822292474871161, %rdx
	movq	%rax, 16+baudr(%rip)
	movq	%rdx, 24+baudr(%rip)
	movabsq	$8015688756010955069, %rax
	movabsq	$7957646632671125614, %rdx
	movq	%rax, 32+baudr(%rip)
	movq	%rdx, 40+baudr(%rip)
	movb	$0, 48+baudr(%rip)
	.loc 1 384 20 is_stmt 1 view .LVU96
	jmp	.L32
.LVL41:
.L22:
	.loc 1 387 19 view .LVU97
	movabsq	$3906083491073581410, %rax
	movabsq	$7022344801642098736, %rdx
.LVL42:
	.loc 1 387 19 is_stmt 0 view .LVU98
	movq	%rax, baudr(%rip)
	movq	%rdx, 8+baudr(%rip)
	movabsq	$8388361543772813373, %rax
	movabsq	$8101822292474871161, %rdx
	movq	%rax, 16+baudr(%rip)
	movq	%rdx, 24+baudr(%rip)
	movabsq	$8015688756010955069, %rax
	movabsq	$7957646632671125614, %rdx
	movq	%rax, 32+baudr(%rip)
	movq	%rdx, 40+baudr(%rip)
	movb	$0, 48+baudr(%rip)
	.loc 1 388 20 is_stmt 1 view .LVU99
	jmp	.L32
.LVL43:
.L20:
	.loc 1 391 17 view .LVU100
	movabsq	$3473739026357641570, %rax
	movabsq	$7022344801642098736, %rdx
.LVL44:
	.loc 1 391 17 is_stmt 0 view .LVU101
	movq	%rax, baudr(%rip)
	movq	%rdx, 8+baudr(%rip)
	movabsq	$8388361543772813373, %rax
	movabsq	$8101822292474871161, %rdx
	movq	%rax, 16+baudr(%rip)
	movq	%rdx, 24+baudr(%rip)
	movabsq	$8015688756010955069, %rax
	movabsq	$7957646632671125614, %rdx
	movq	%rax, 32+baudr(%rip)
	movq	%rdx, 40+baudr(%rip)
	movb	$0, 48+baudr(%rip)
	.loc 1 392 20 is_stmt 1 view .LVU102
	jmp	.L32
.LVL45:
.L29:
	.loc 1 393 17 view .LVU103
	movabsq	$3472332750985716066, %rax
	movabsq	$7022344801642098736, %rdx
.LVL46:
	.loc 1 393 17 is_stmt 0 view .LVU104
	movq	%rax, baudr(%rip)
	movq	%rdx, 8+baudr(%rip)
	movabsq	$8388361543772813373, %rax
	movabsq	$8101822292474871161, %rdx
	movq	%rax, 16+baudr(%rip)
	movq	%rdx, 24+baudr(%rip)
	movabsq	$8015688756010955069, %rax
	movabsq	$7957646632671125614, %rdx
	movq	%rax, 32+baudr(%rip)
	movq	%rdx, 40+baudr(%rip)
	movb	$0, 48+baudr(%rip)
	.loc 1 394 20 is_stmt 1 view .LVU105
	jmp	.L32
.LVL47:
.L27:
	.loc 1 397 19 view .LVU106
	movabsq	$3472333850497343842, %rax
	movabsq	$7022344801642098736, %rdx
.LVL48:
	.loc 1 397 19 is_stmt 0 view .LVU107
	movq	%rax, baudr(%rip)
	movq	%rdx, 8+baudr(%rip)
	movabsq	$8388361543772813373, %rax
	movabsq	$8101822292474871161, %rdx
	movq	%rax, 16+baudr(%rip)
	movq	%rdx, 24+baudr(%rip)
	movabsq	$8015688756010955069, %rax
	movabsq	$7957646632671125614, %rdx
	movq	%rax, 32+baudr(%rip)
	movq	%rdx, 40+baudr(%rip)
	movb	$0, 48+baudr(%rip)
	.loc 1 398 20 is_stmt 1 view .LVU108
	jmp	.L32
.LVL49:
.L12:
	.loc 1 401 15 view .LVU109
	leaq	.LC1(%rip), %rcx
.LVL50:
	.loc 1 401 15 is_stmt 0 view .LVU110
	call	puts
.LVL51:
	.loc 1 402 20 is_stmt 1 view .LVU111
	.loc 1 402 26 is_stmt 0 view .LVU112
	movl	$1, %eax
	jmp	.L1
.L44:
	.loc 1 416 5 is_stmt 1 view .LVU113
	leaq	.LC2(%rip), %rcx
	call	puts
.LVL52:
	.loc 1 417 5 view .LVU114
	.loc 1 417 11 is_stmt 0 view .LVU115
	movl	$1, %eax
	jmp	.L1
.L45:
	.loc 1 426 5 is_stmt 1 view .LVU116
	leaq	.LC3(%rip), %rcx
	call	puts
.LVL53:
	.loc 1 427 5 view .LVU117
	movslq	%ebx, %rbx
.LVL54:
	.loc 1 427 5 is_stmt 0 view .LVU118
	leaq	Cport(%rip), %rax
	movq	(%rax,%rbx,8), %rcx
	call	*__imp_CloseHandle(%rip)
.LVL55:
	.loc 1 428 5 is_stmt 1 view .LVU119
	.loc 1 428 11 is_stmt 0 view .LVU120
	movl	$1, %eax
	jmp	.L1
.LVL56:
.L46:
	.loc 1 433 5 is_stmt 1 view .LVU121
	leaq	.LC4(%rip), %rcx
	call	puts
.LVL57:
	.loc 1 434 5 view .LVU122
	movslq	%ebx, %rbx
.LVL58:
	.loc 1 434 5 is_stmt 0 view .LVU123
	leaq	Cport(%rip), %rax
	movq	(%rax,%rbx,8), %rcx
	call	*__imp_CloseHandle(%rip)
.LVL59:
	.loc 1 435 5 is_stmt 1 view .LVU124
	.loc 1 435 11 is_stmt 0 view .LVU125
	movl	$1, %eax
	jmp	.L1
.LVL60:
.L47:
	.loc 1 448 5 is_stmt 1 view .LVU126
	leaq	.LC5(%rip), %rcx
	call	puts
.LVL61:
	.loc 1 449 5 view .LVU127
	movslq	%ebx, %rbx
.LVL62:
	.loc 1 449 5 is_stmt 0 view .LVU128
	leaq	Cport(%rip), %rax
	movq	(%rax,%rbx,8), %rcx
	call	*__imp_CloseHandle(%rip)
.LVL63:
	.loc 1 450 5 is_stmt 1 view .LVU129
	.loc 1 450 11 is_stmt 0 view .LVU130
	movl	$1, %eax
	jmp	.L1
	.cfi_endproc
.LFE5687:
	.seh_endproc
	.globl	RS232_PollComport
	.def	RS232_PollComport;	.scl	2;	.type	32;	.endef
	.seh_proc	RS232_PollComport
RS232_PollComport:
.LVL64:
.LFB5688:
	.loc 1 458 1 is_stmt 1 view -0
	.cfi_startproc
1:	call	__fentry__
	.loc 1 458 1 is_stmt 0 view .LVU132
	subq	$72, %rsp
	.seh_stackalloc	72
	.cfi_def_cfa_offset 80
	.seh_endprologue
	.loc 1 459 3 is_stmt 1 view .LVU133
	.loc 1 461 3 view .LVU134
.LVL65:
	.loc 1 466 3 view .LVU135
	cmpl	$4096, %r8d
	movslq	%ecx, %rcx
	.loc 1 466 3 is_stmt 0 view .LVU136
	leaq	Cport(%rip), %rax
	movq	(%rax,%rcx,8), %rcx
.LVL66:
	.loc 1 466 3 view .LVU137
	movq	$0, 32(%rsp)
	leaq	60(%rsp), %r9
	movl	$4096, %eax
	cmovg	%eax, %r8d
.LVL67:
	.loc 1 466 3 view .LVU138
	call	*__imp_ReadFile(%rip)
.LVL68:
	.loc 1 468 3 is_stmt 1 view .LVU139
	.loc 1 469 1 is_stmt 0 view .LVU140
	movl	60(%rsp), %eax
	addq	$72, %rsp
	.cfi_def_cfa_offset 8
	ret
	.cfi_endproc
.LFE5688:
	.seh_endproc
	.globl	RS232_SendByte
	.def	RS232_SendByte;	.scl	2;	.type	32;	.endef
	.seh_proc	RS232_SendByte
RS232_SendByte:
.LVL69:
.LFB5689:
	.loc 1 473 1 is_stmt 1 view -0
	.cfi_startproc
1:	call	__fentry__
	.loc 1 473 1 is_stmt 0 view .LVU142
	subq	$72, %rsp
	.seh_stackalloc	72
	.cfi_def_cfa_offset 80
	.seh_endprologue
	movb	%dl, 88(%rsp)
	.loc 1 474 3 is_stmt 1 view .LVU143
	.loc 1 476 3 view .LVU144
	leaq	88(%rsp), %rdx
	movslq	%ecx, %rcx
	.loc 1 476 3 is_stmt 0 view .LVU145
	leaq	Cport(%rip), %rax
	movq	(%rax,%rcx,8), %rcx
.LVL70:
	.loc 1 476 3 view .LVU146
	movq	$0, 32(%rsp)
	leaq	60(%rsp), %r9
	movl	$1, %r8d
	call	*__imp_WriteFile(%rip)
.LVL71:
	.loc 1 478 3 is_stmt 1 view .LVU147
	.loc 1 478 5 is_stmt 0 view .LVU148
	movl	60(%rsp), %eax
	shrl	$31, %eax
	.loc 1 481 1 view .LVU149
	addq	$72, %rsp
	.cfi_def_cfa_offset 8
	ret
	.cfi_endproc
.LFE5689:
	.seh_endproc
	.globl	RS232_SendBuf
	.def	RS232_SendBuf;	.scl	2;	.type	32;	.endef
	.seh_proc	RS232_SendBuf
RS232_SendBuf:
.LVL72:
.LFB5690:
	.loc 1 485 1 is_stmt 1 view -0
	.cfi_startproc
1:	call	__fentry__
	.loc 1 485 1 is_stmt 0 view .LVU151
	subq	$72, %rsp
	.seh_stackalloc	72
	.cfi_def_cfa_offset 80
	.seh_endprologue
	.loc 1 486 3 is_stmt 1 view .LVU152
	.loc 1 488 3 view .LVU153
	.loc 1 488 6 is_stmt 0 view .LVU154
	movslq	%ecx, %rcx
	.loc 1 488 6 view .LVU155
	leaq	Cport(%rip), %rax
	movq	(%rax,%rcx,8), %rcx
.LVL73:
	.loc 1 488 6 view .LVU156
	movq	$0, 32(%rsp)
	leaq	60(%rsp), %r9
	call	*__imp_WriteFile(%rip)
.LVL74:
	.loc 1 490 11 view .LVU157
	testl	%eax, %eax
	movl	$-1, %eax
	cmovne	60(%rsp), %eax
	.loc 1 494 1 view .LVU158
	addq	$72, %rsp
	.cfi_def_cfa_offset 8
	ret
	.cfi_endproc
.LFE5690:
	.seh_endproc
	.globl	RS232_CloseComport
	.def	RS232_CloseComport;	.scl	2;	.type	32;	.endef
	.seh_proc	RS232_CloseComport
RS232_CloseComport:
.LVL75:
.LFB5691:
	.loc 1 498 1 is_stmt 1 view -0
	.cfi_startproc
1:	call	__fentry__
	.loc 1 498 1 is_stmt 0 view .LVU160
	subq	$40, %rsp
	.seh_stackalloc	40
	.cfi_def_cfa_offset 48
	.seh_endprologue
	.loc 1 499 3 is_stmt 1 view .LVU161
	movslq	%ecx, %rcx
	.loc 1 499 3 is_stmt 0 view .LVU162
	leaq	Cport(%rip), %rax
	movq	(%rax,%rcx,8), %rcx
.LVL76:
	.loc 1 499 3 view .LVU163
	call	*__imp_CloseHandle(%rip)
	nop
.LVL77:
	.loc 1 500 1 view .LVU164
	addq	$40, %rsp
	.cfi_def_cfa_offset 8
	ret
	.cfi_endproc
.LFE5691:
	.seh_endproc
	.globl	RS232_IsCTSEnabled
	.def	RS232_IsCTSEnabled;	.scl	2;	.type	32;	.endef
	.seh_proc	RS232_IsCTSEnabled
RS232_IsCTSEnabled:
.LVL78:
.LFB5692:
	.loc 1 504 1 is_stmt 1 view -0
	.cfi_startproc
1:	call	__fentry__
	.loc 1 504 1 is_stmt 0 view .LVU166
	subq	$56, %rsp
	.seh_stackalloc	56
	.cfi_def_cfa_offset 64
	.seh_endprologue
	.loc 1 505 3 is_stmt 1 view .LVU167
	.loc 1 507 3 view .LVU168
	leaq	44(%rsp), %rdx
	movslq	%ecx, %rcx
	.loc 1 507 3 is_stmt 0 view .LVU169
	leaq	Cport(%rip), %rax
	movq	(%rax,%rcx,8), %rcx
.LVL79:
	.loc 1 507 3 view .LVU170
	call	*__imp_GetCommModemStatus(%rip)
.LVL80:
	.loc 1 509 3 is_stmt 1 view .LVU171
	.loc 1 509 5 is_stmt 0 view .LVU172
	movl	44(%rsp), %eax
	shrl	$4, %eax
	andl	$1, %eax
	.loc 1 511 1 view .LVU173
	addq	$56, %rsp
	.cfi_def_cfa_offset 8
	ret
	.cfi_endproc
.LFE5692:
	.seh_endproc
	.globl	RS232_IsDSREnabled
	.def	RS232_IsDSREnabled;	.scl	2;	.type	32;	.endef
	.seh_proc	RS232_IsDSREnabled
RS232_IsDSREnabled:
.LVL81:
.LFB5693:
	.loc 1 515 1 is_stmt 1 view -0
	.cfi_startproc
1:	call	__fentry__
	.loc 1 515 1 is_stmt 0 view .LVU175
	subq	$56, %rsp
	.seh_stackalloc	56
	.cfi_def_cfa_offset 64
	.seh_endprologue
	.loc 1 516 3 is_stmt 1 view .LVU176
	.loc 1 518 3 view .LVU177
	leaq	44(%rsp), %rdx
	movslq	%ecx, %rcx
	.loc 1 518 3 is_stmt 0 view .LVU178
	leaq	Cport(%rip), %rax
	movq	(%rax,%rcx,8), %rcx
.LVL82:
	.loc 1 518 3 view .LVU179
	call	*__imp_GetCommModemStatus(%rip)
.LVL83:
	.loc 1 520 3 is_stmt 1 view .LVU180
	.loc 1 520 5 is_stmt 0 view .LVU181
	movl	44(%rsp), %eax
	shrl	$5, %eax
	andl	$1, %eax
	.loc 1 522 1 view .LVU182
	addq	$56, %rsp
	.cfi_def_cfa_offset 8
	ret
	.cfi_endproc
.LFE5693:
	.seh_endproc
	.globl	RS232_enableDTR
	.def	RS232_enableDTR;	.scl	2;	.type	32;	.endef
	.seh_proc	RS232_enableDTR
RS232_enableDTR:
.LVL84:
.LFB5694:
	.loc 1 526 1 is_stmt 1 view -0
	.cfi_startproc
1:	call	__fentry__
	.loc 1 526 1 is_stmt 0 view .LVU184
	subq	$40, %rsp
	.seh_stackalloc	40
	.cfi_def_cfa_offset 48
	.seh_endprologue
	.loc 1 527 3 is_stmt 1 view .LVU185
	movslq	%ecx, %rcx
	.loc 1 527 3 is_stmt 0 view .LVU186
	leaq	Cport(%rip), %rax
	movq	(%rax,%rcx,8), %rcx
.LVL85:
	.loc 1 527 3 view .LVU187
	movl	$5, %edx
	call	*__imp_EscapeCommFunction(%rip)
	nop
.LVL86:
	.loc 1 528 1 view .LVU188
	addq	$40, %rsp
	.cfi_def_cfa_offset 8
	ret
	.cfi_endproc
.LFE5694:
	.seh_endproc
	.globl	RS232_disableDTR
	.def	RS232_disableDTR;	.scl	2;	.type	32;	.endef
	.seh_proc	RS232_disableDTR
RS232_disableDTR:
.LVL87:
.LFB5695:
	.loc 1 532 1 is_stmt 1 view -0
	.cfi_startproc
1:	call	__fentry__
	.loc 1 532 1 is_stmt 0 view .LVU190
	subq	$40, %rsp
	.seh_stackalloc	40
	.cfi_def_cfa_offset 48
	.seh_endprologue
	.loc 1 533 3 is_stmt 1 view .LVU191
	movslq	%ecx, %rcx
	.loc 1 533 3 is_stmt 0 view .LVU192
	leaq	Cport(%rip), %rax
	movq	(%rax,%rcx,8), %rcx
.LVL88:
	.loc 1 533 3 view .LVU193
	movl	$6, %edx
	call	*__imp_EscapeCommFunction(%rip)
	nop
.LVL89:
	.loc 1 534 1 view .LVU194
	addq	$40, %rsp
	.cfi_def_cfa_offset 8
	ret
	.cfi_endproc
.LFE5695:
	.seh_endproc
	.globl	RS232_enableRTS
	.def	RS232_enableRTS;	.scl	2;	.type	32;	.endef
	.seh_proc	RS232_enableRTS
RS232_enableRTS:
.LVL90:
.LFB5696:
	.loc 1 538 1 is_stmt 1 view -0
	.cfi_startproc
1:	call	__fentry__
	.loc 1 538 1 is_stmt 0 view .LVU196
	subq	$40, %rsp
	.seh_stackalloc	40
	.cfi_def_cfa_offset 48
	.seh_endprologue
	.loc 1 539 3 is_stmt 1 view .LVU197
	movslq	%ecx, %rcx
	.loc 1 539 3 is_stmt 0 view .LVU198
	leaq	Cport(%rip), %rax
	movq	(%rax,%rcx,8), %rcx
.LVL91:
	.loc 1 539 3 view .LVU199
	movl	$3, %edx
	call	*__imp_EscapeCommFunction(%rip)
	nop
.LVL92:
	.loc 1 540 1 view .LVU200
	addq	$40, %rsp
	.cfi_def_cfa_offset 8
	ret
	.cfi_endproc
.LFE5696:
	.seh_endproc
	.globl	RS232_disableRTS
	.def	RS232_disableRTS;	.scl	2;	.type	32;	.endef
	.seh_proc	RS232_disableRTS
RS232_disableRTS:
.LVL93:
.LFB5697:
	.loc 1 544 1 is_stmt 1 view -0
	.cfi_startproc
1:	call	__fentry__
	.loc 1 544 1 is_stmt 0 view .LVU202
	subq	$40, %rsp
	.seh_stackalloc	40
	.cfi_def_cfa_offset 48
	.seh_endprologue
	.loc 1 545 3 is_stmt 1 view .LVU203
	movslq	%ecx, %rcx
	.loc 1 545 3 is_stmt 0 view .LVU204
	leaq	Cport(%rip), %rax
	movq	(%rax,%rcx,8), %rcx
.LVL94:
	.loc 1 545 3 view .LVU205
	movl	$4, %edx
	call	*__imp_EscapeCommFunction(%rip)
	nop
.LVL95:
	.loc 1 546 1 view .LVU206
	addq	$40, %rsp
	.cfi_def_cfa_offset 8
	ret
	.cfi_endproc
.LFE5697:
	.seh_endproc
	.globl	RS232_cputs
	.def	RS232_cputs;	.scl	2;	.type	32;	.endef
	.seh_proc	RS232_cputs
RS232_cputs:
.LVL96:
.LFB5698:
	.loc 1 553 1 is_stmt 1 view -0
	.cfi_startproc
1:	call	__fentry__
	.loc 1 553 1 is_stmt 0 view .LVU208
	pushq	%rsi
	.seh_pushreg	%rsi
	.cfi_def_cfa_offset 16
	.cfi_offset 4, -16
	pushq	%rbx
	.seh_pushreg	%rbx
	.cfi_def_cfa_offset 24
	.cfi_offset 3, -24
	subq	$40, %rsp
	.seh_stackalloc	40
	.cfi_def_cfa_offset 64
	.seh_endprologue
	movl	%ecx, %esi
	movq	%rdx, %rbx
	.loc 1 554 3 is_stmt 1 view .LVU209
	.loc 1 554 8 view .LVU210
	.loc 1 554 9 is_stmt 0 view .LVU211
	movzbl	(%rdx), %edx
.LVL97:
	.loc 1 554 8 view .LVU212
	testb	%dl, %dl
	je	.L60
.LVL98:
.L62:
	.loc 1 554 21 is_stmt 1 discriminator 2 view .LVU213
	.loc 1 554 58 is_stmt 0 discriminator 2 view .LVU214
	addq	$1, %rbx
.LVL99:
	.loc 1 554 21 discriminator 2 view .LVU215
	movzbl	%dl, %edx
	movl	%esi, %ecx
	call	RS232_SendByte
.LVL100:
	.loc 1 554 8 is_stmt 1 discriminator 2 view .LVU216
	.loc 1 554 9 is_stmt 0 discriminator 2 view .LVU217
	movzbl	(%rbx), %edx
	.loc 1 554 8 discriminator 2 view .LVU218
	testb	%dl, %dl
	jne	.L62
.L60:
	.loc 1 555 1 view .LVU219
	addq	$40, %rsp
	.cfi_def_cfa_offset 24
	popq	%rbx
	.cfi_restore 3
	.cfi_def_cfa_offset 16
.LVL101:
	.loc 1 555 1 view .LVU220
	popq	%rsi
	.cfi_restore 4
	.cfi_def_cfa_offset 8
.LVL102:
	.loc 1 555 1 view .LVU221
	ret
	.cfi_endproc
.LFE5698:
	.seh_endproc
	.globl	baudr
	.bss
	.align 32
baudr:
	.space 64
	.globl	comports
	.data
	.align 32
comports:
	.ascii "\\\\.\\COM1\0"
	.space 1
	.ascii "\\\\.\\COM2\0"
	.space 1
	.ascii "\\\\.\\COM3\0"
	.space 1
	.ascii "\\\\.\\COM4\0"
	.space 1
	.ascii "\\\\.\\COM5\0"
	.space 1
	.ascii "\\\\.\\COM6\0"
	.space 1
	.ascii "\\\\.\\COM7\0"
	.space 1
	.ascii "\\\\.\\COM8\0"
	.space 1
	.ascii "\\\\.\\COM9\0"
	.space 1
	.ascii "\\\\.\\COM10\0"
	.ascii "\\\\.\\COM11\0"
	.ascii "\\\\.\\COM12\0"
	.ascii "\\\\.\\COM13\0"
	.ascii "\\\\.\\COM14\0"
	.ascii "\\\\.\\COM15\0"
	.ascii "\\\\.\\COM16\0"
	.globl	Cport
	.bss
	.align 32
Cport:
	.space 128
	.text
.Letext0:
	.file 2 "/usr/include/w32api/minwindef.h"
	.file 3 "/usr/include/w32api/basetsd.h"
	.file 4 "/usr/include/w32api/winnt.h"
	.file 5 "/usr/include/w32api/winbase.h"
	.file 6 "/usr/include/w32api/combaseapi.h"
	.file 7 "/usr/include/w32api/wtypes.h"
	.file 8 "/usr/include/w32api/handleapi.h"
	.file 9 "/usr/include/w32api/fileapi.h"
	.file 10 "<built-in>"